; Function Attrs: mustprogress uwtable
define noundef zeroext i1 @_ZN8facebook5velox6memory13MmapAllocator9SizeClass8allocateEiRmRNS1_10AllocationE(ptr noundef nonnull align 8 dereferenceable(192) %this, i32 noundef %numPages, ptr noundef nonnull align 8 dereferenceable(8) %numUnmapped, ptr noundef nonnull align 8 dereferenceable(36) %out) local_unnamed_addr #0 align 2 personality ptr @__gxx_personality_v0 {
entry:
  %mutex_ = getelementptr inbounds i8, ptr %this, i64 32
  %call1.i.i.i = tail call noundef i32 @pthread_mutex_lock(ptr noundef nonnull %mutex_) #24
  %tobool.not.i.i = icmp eq i32 %call1.i.i.i, 0
  br i1 %tobool.not.i.i, label %_ZNSt10lock_guardISt5mutexEC2ERS0_.exit, label %if.then.i.i

if.then.i.i:                                      ; preds = %entry
  tail call void @_ZSt20__throw_system_errori(i32 noundef %call1.i.i.i) #30
  unreachable

_ZNSt10lock_guardISt5mutexEC2ERS0_.exit:          ; preds = %entry
  %call = invoke noundef zeroext i1 @_ZN8facebook5velox6memory13MmapAllocator9SizeClass14allocateLockedEiPmRNS1_10AllocationE(ptr noundef nonnull align 8 dereferenceable(192) %this, i32 noundef %numPages, ptr noundef nonnull %numUnmapped, ptr noundef nonnull align 8 dereferenceable(36) %out)
          to label %invoke.cont unwind label %lpad

invoke.cont:                                      ; preds = %_ZNSt10lock_guardISt5mutexEC2ERS0_.exit
  %call1.i.i.i1 = tail call noundef i32 @pthread_mutex_unlock(ptr noundef nonnull %mutex_) #24
  ret i1 %call

lpad:                                             ; preds = %_ZNSt10lock_guardISt5mutexEC2ERS0_.exit
  %0 = landingpad { ptr, i32 }
          cleanup
  %call1.i.i.i2 = tail call noundef i32 @pthread_mutex_unlock(ptr noundef nonnull %mutex_) #24
  resume { ptr, i32 } %0
}